target datalayout = "e-m:e-p270:32:32-p271:32:32-p272:64:64-i64:64-i128:128-f80:128-n8:16:32:64-S128"
target triple = "x86_64-pc-linux-gnu"

%struct._e_guid_t = type { i32, i16, i16, [8 x i8] }
%struct.decode_dcerpc_bind_values_s = type { %struct._address, %struct._address, i32, i32, i32, i16, i64, ptr, %struct._e_guid_t, i16 }
%struct._address = type { i32, i32, ptr, ptr }
%struct._dcerpc_bind_key = type { ptr, i16, i64 }
%struct._dcerpc_bind_value = type { %struct._e_guid_t, i16, %struct._e_guid_t }

@dcerpc_binds = internal global ptr null, align 8
@uuid_data_repr_proto = internal global %struct._e_guid_t { i32 -1970774780, i16 7403, i16 4553, [8 x i8] c"\9F\E8\08\00+\10H`" }, align 4

; Function Attrs: null_pointer_is_valid sspstrong uwtable
define internal ptr @dcerpc_add_conv_to_bind_table(ptr noundef %0) #0 {
  %2 = alloca ptr, align 8
  %3 = alloca ptr, align 8
  %4 = alloca ptr, align 8
  %5 = alloca ptr, align 8
  store ptr %0, ptr %2, align 8
  call void @llvm.lifetime.start.p0(i64 8, ptr %3) #19
  call void @llvm.lifetime.start.p0(i64 8, ptr %4) #19
  call void @llvm.lifetime.start.p0(i64 8, ptr %5) #19
  %6 = load ptr, ptr %2, align 8
  %7 = getelementptr inbounds nuw %struct.decode_dcerpc_bind_values_s, ptr %6, i32 0, i32 0
  %8 = load ptr, ptr %2, align 8
  %9 = getelementptr inbounds nuw %struct.decode_dcerpc_bind_values_s, ptr %8, i32 0, i32 1
  %10 = load ptr, ptr %2, align 8
  %11 = getelementptr inbounds nuw %struct.decode_dcerpc_bind_values_s, ptr %10, i32 0, i32 2
  %12 = load i32, ptr %11, align 8
  %13 = call i32 @conversation_pt_to_conversation_type(i32 noundef %12)
  %14 = load ptr, ptr %2, align 8
  %15 = getelementptr inbounds nuw %struct.decode_dcerpc_bind_values_s, ptr %14, i32 0, i32 3
  %16 = load i32, ptr %15, align 4
  %17 = load ptr, ptr %2, align 8
  %18 = getelementptr inbounds nuw %struct.decode_dcerpc_bind_values_s, ptr %17, i32 0, i32 4
  %19 = load i32, ptr %18, align 8
  %20 = call ptr @find_conversation(i32 noundef 0, ptr noundef %7, ptr noundef %9, i32 noundef %13, i32 noundef %16, i32 noundef %19, i32 noundef 0)
  store ptr %20, ptr %5, align 8
  %21 = load ptr, ptr %5, align 8
  %22 = icmp ne ptr %21, null
  br i1 %22, label %39, label %23

23:                                               ; preds = %1
  %24 = load ptr, ptr %2, align 8
  %25 = getelementptr inbounds nuw %struct.decode_dcerpc_bind_values_s, ptr %24, i32 0, i32 0
  %26 = load ptr, ptr %2, align 8
  %27 = getelementptr inbounds nuw %struct.decode_dcerpc_bind_values_s, ptr %26, i32 0, i32 1
  %28 = load ptr, ptr %2, align 8
  %29 = getelementptr inbounds nuw %struct.decode_dcerpc_bind_values_s, ptr %28, i32 0, i32 2
  %30 = load i32, ptr %29, align 8
  %31 = call i32 @conversation_pt_to_conversation_type(i32 noundef %30)
  %32 = load ptr, ptr %2, align 8
  %33 = getelementptr inbounds nuw %struct.decode_dcerpc_bind_values_s, ptr %32, i32 0, i32 3
  %34 = load i32, ptr %33, align 4
  %35 = load ptr, ptr %2, align 8
  %36 = getelementptr inbounds nuw %struct.decode_dcerpc_bind_values_s, ptr %35, i32 0, i32 4
  %37 = load i32, ptr %36, align 8
  %38 = call ptr @conversation_new(i32 noundef 0, ptr noundef %25, ptr noundef %27, i32 noundef %31, i32 noundef %34, i32 noundef %37, i32 noundef 0)
  store ptr %38, ptr %5, align 8
  br label %39

39:                                               ; preds = %23, %1
  %40 = call ptr @wmem_file_scope()
  %41 = call noalias ptr @wmem_alloc(ptr noundef %40, i64 noundef 36) #22
  store ptr %41, ptr %3, align 8
  %42 = load ptr, ptr %3, align 8
  %43 = getelementptr inbounds nuw %struct._dcerpc_bind_value, ptr %42, i32 0, i32 0
  %44 = load ptr, ptr %2, align 8
  %45 = getelementptr inbounds nuw %struct.decode_dcerpc_bind_values_s, ptr %44, i32 0, i32 8
  call void @llvm.memcpy.p0.p0.i64(ptr align 4 %43, ptr align 8 %45, i64 16, i1 false)
  %46 = load ptr, ptr %2, align 8
  %47 = getelementptr inbounds nuw %struct.decode_dcerpc_bind_values_s, ptr %46, i32 0, i32 9
  %48 = load i16, ptr %47, align 8
  %49 = load ptr, ptr %3, align 8
  %50 = getelementptr inbounds nuw %struct._dcerpc_bind_value, ptr %49, i32 0, i32 1
  store i16 %48, ptr %50, align 4
  %51 = load ptr, ptr %3, align 8
  %52 = getelementptr inbounds nuw %struct._dcerpc_bind_value, ptr %51, i32 0, i32 2
  call void @llvm.memcpy.p0.p0.i64(ptr align 4 %52, ptr align 4 @uuid_data_repr_proto, i64 16, i1 false)
  %53 = call ptr @wmem_file_scope()
  %54 = call noalias ptr @wmem_alloc(ptr noundef %53, i64 noundef 24) #22
  store ptr %54, ptr %4, align 8
  %55 = load ptr, ptr %5, align 8
  %56 = load ptr, ptr %4, align 8
  %57 = getelementptr inbounds nuw %struct._dcerpc_bind_key, ptr %56, i32 0, i32 0
  store ptr %55, ptr %57, align 8
  %58 = load ptr, ptr %2, align 8
  %59 = getelementptr inbounds nuw %struct.decode_dcerpc_bind_values_s, ptr %58, i32 0, i32 5
  %60 = load i16, ptr %59, align 4
  %61 = load ptr, ptr %4, align 8
  %62 = getelementptr inbounds nuw %struct._dcerpc_bind_key, ptr %61, i32 0, i32 1
  store i16 %60, ptr %62, align 8
  %63 = load ptr, ptr %2, align 8
  %64 = getelementptr inbounds nuw %struct.decode_dcerpc_bind_values_s, ptr %63, i32 0, i32 6
  %65 = load i64, ptr %64, align 8
  %66 = load ptr, ptr %4, align 8
  %67 = getelementptr inbounds nuw %struct._dcerpc_bind_key, ptr %66, i32 0, i32 2
  store i64 %65, ptr %67, align 8
  %68 = load ptr, ptr @dcerpc_binds, align 8
  %69 = load ptr, ptr %4, align 8
  %70 = load ptr, ptr %3, align 8
  %71 = call ptr @wmem_map_insert(ptr noundef %68, ptr noundef %69, ptr noundef %70)
  %72 = load ptr, ptr %3, align 8
  call void @llvm.lifetime.end.p0(i64 8, ptr %5) #19
  call void @llvm.lifetime.end.p0(i64 8, ptr %4) #19
  call void @llvm.lifetime.end.p0(i64 8, ptr %3) #19
  ret ptr %72
}

; Function Attrs: null_pointer_is_valid sspstrong uwtable
define internal void @decode_dcerpc_inject_binding(ptr noundef %0, ptr noundef %1) #0 {
  %3 = alloca ptr, align 8
  %4 = alloca ptr, align 8
  store ptr %0, ptr %3, align 8
  store ptr %1, ptr %4, align 8
  %5 = load ptr, ptr %3, align 8
  %6 = call ptr @dcerpc_add_conv_to_bind_table(ptr noundef %5)
  ret void
}