; Function Attrs: null_pointer_is_valid sspstrong uwtable
define internal void @decode_dcerpc_inject_binding(ptr noundef %0, ptr readnone captures(none) %1) #0 {
  %3 = getelementptr inbounds nuw i8, ptr %0, i64 24
  %4 = getelementptr inbounds nuw i8, ptr %0, i64 48
  %5 = load i32, ptr %4, align 8
  %6 = tail call i32 @conversation_pt_to_conversation_type(i32 noundef %5)
  %7 = getelementptr inbounds nuw i8, ptr %0, i64 52
  %8 = load i32, ptr %7, align 4
  %9 = getelementptr inbounds nuw i8, ptr %0, i64 56
  %10 = load i32, ptr %9, align 8
  %11 = tail call ptr @find_conversation(i32 noundef 0, ptr noundef %0, ptr noundef nonnull %3, i32 noundef %6, i32 noundef %8, i32 noundef %10, i32 noundef 0)
  %.not.i = icmp eq ptr %11, null
  br i1 %.not.i, label %12, label %dcerpc_add_conv_to_bind_table.exit

12:                                               ; preds = %2
  %13 = load i32, ptr %4, align 8
  %14 = tail call i32 @conversation_pt_to_conversation_type(i32 noundef %13)
  %15 = load i32, ptr %7, align 4
  %16 = load i32, ptr %9, align 8
  %17 = tail call ptr @conversation_new(i32 noundef 0, ptr noundef %0, ptr noundef nonnull %3, i32 noundef %14, i32 noundef %15, i32 noundef %16, i32 noundef 0)
  br label %dcerpc_add_conv_to_bind_table.exit

dcerpc_add_conv_to_bind_table.exit:               ; preds = %2, %12
  %.0.i = phi ptr [ %11, %2 ], [ %17, %12 ]
  %18 = tail call ptr @wmem_file_scope()
  %19 = tail call noalias dereferenceable_or_null(36) ptr @wmem_alloc(ptr noundef %18, i64 noundef 36) #18
  %20 = getelementptr inbounds nuw i8, ptr %0, i64 80
  tail call void @llvm.memcpy.p0.p0.i64(ptr noundef align 4 dereferenceable(16) %19, ptr noundef nonnull align 8 dereferenceable(16) %20, i64 16, i1 false)
  %21 = getelementptr inbounds nuw i8, ptr %0, i64 96
  %22 = load i16, ptr %21, align 8
  %23 = getelementptr inbounds nuw i8, ptr %19, i64 16
  store i16 %22, ptr %23, align 4
  %24 = getelementptr inbounds nuw i8, ptr %19, i64 20
  tail call void @llvm.memcpy.p0.p0.i64(ptr noundef nonnull align 4 dereferenceable(16) %24, ptr noundef nonnull align 4 dereferenceable(16) @uuid_data_repr_proto, i64 16, i1 false)
  %25 = tail call ptr @wmem_file_scope()
  %26 = tail call noalias dereferenceable_or_null(24) ptr @wmem_alloc(ptr noundef %25, i64 noundef 24) #18
  store ptr %.0.i, ptr %26, align 8
  %27 = getelementptr inbounds nuw i8, ptr %0, i64 60
  %28 = load i16, ptr %27, align 4
  %29 = getelementptr inbounds nuw i8, ptr %26, i64 8
  store i16 %28, ptr %29, align 8
  %30 = getelementptr inbounds nuw i8, ptr %0, i64 64
  %31 = load i64, ptr %30, align 8
  %32 = getelementptr inbounds nuw i8, ptr %26, i64 16
  store i64 %31, ptr %32, align 8
  %33 = load ptr, ptr @dcerpc_binds, align 8
  %34 = tail call ptr @wmem_map_insert(ptr noundef %33, ptr noundef %26, ptr noundef %19)
  ret void
}